target datalayout = "e-m:e-p270:32:32-p271:32:32-p272:64:64-i64:64-i128:128-f80:128-n8:16:32:64-S128"
target triple = "x86_64-pc-linux-gnu"

%struct.AVCodecContext = type { ptr, i32, i32, ptr, i32, i32, ptr, ptr, ptr, i64, i32, i32, ptr, i32, %struct.AVRational, %struct.AVRational, %struct.AVRational, i32, i32, i32, i32, i32, %struct.AVRational, i32, i32, i32, i32, i32, i32, i32, i32, i32, i32, i32, ptr, ptr, i32, float, float, float, float, float, float, float, float, float, i32, i32, i32, i32, i32, i32, i32, i32, i32, i32, i32, i32, ptr, ptr, ptr, i32, i32, i32, i32, i32, i32, i32, i32, i32, i32, %struct.AVChannelLayout, i32, i32, i32, i32, i32, i32, i32, i32, ptr, i32, i32, i32, float, float, i32, i32, i32, i32, i32, ptr, i64, i64, float, float, i32, i32, ptr, ptr, i32, i32, i32, i32, i32, ptr, ptr, ptr, ptr, i32, i32, [8 x i64], i32, i32, i32, i32, i32, i32, i32, ptr, ptr, i32, i32, i32, i32, i32, i32, i32, i32, i32, i32, ptr, ptr, i32, i32, ptr, ptr, ptr, ptr, i32, i32, i64, i32, i32, i64, ptr, i64, ptr, i32, ptr, i32 }
%struct.AVRational = type { i32, i32 }
%struct.AVChannelLayout = type { i32, i32, %union.anon.0, ptr }
%union.anon.0 = type { i64 }
%struct.ATRAC3PContext = type { %struct.GetBitContext, ptr, [8 x i8], [2 x [2048 x float]], [2 x [2048 x float]], [2 x [2048 x float]], [2 x [2048 x float]], %struct.AtracGCContext, ptr, ptr, ptr, ptr, ptr, i32, [5 x i8], ptr, [8 x i8] }
%struct.GetBitContext = type { ptr, ptr, i32, i32, i32 }
%struct.AtracGCContext = type { [16 x float], [31 x float], i32, i32, i32 }

@.str.5 = private unnamed_addr constant [32 x i8] c"Unsupported channel count: %d!\0A\00", align 1

; Function Attrs: cold nounwind optsize uwtable
define internal i32 @set_channel_params(ptr noundef %0, ptr noundef %1) #0 {
  %3 = alloca i32, align 4
  %4 = alloca ptr, align 8
  %5 = alloca ptr, align 8
  %6 = alloca i32, align 4
  %7 = alloca %struct.AVChannelLayout, align 8
  %8 = alloca %struct.AVChannelLayout, align 8
  %9 = alloca %struct.AVChannelLayout, align 8
  %10 = alloca %struct.AVChannelLayout, align 8
  %11 = alloca %struct.AVChannelLayout, align 8
  %12 = alloca %struct.AVChannelLayout, align 8
  %13 = alloca %struct.AVChannelLayout, align 8
  %14 = alloca i32, align 4
  store ptr %0, ptr %4, align 8, !tbaa !29
  store ptr %1, ptr %5, align 8, !tbaa !4
  call void @llvm.lifetime.start.p0(i64 4, ptr %6) #8
  %15 = load ptr, ptr %5, align 8, !tbaa !4
  %16 = getelementptr inbounds nuw %struct.AVCodecContext, ptr %15, i32 0, i32 71
  %17 = getelementptr inbounds nuw %struct.AVChannelLayout, ptr %16, i32 0, i32 1
  %18 = load i32, ptr %17, align 4, !tbaa !86
  store i32 %18, ptr %6, align 4, !tbaa !33
  %19 = load ptr, ptr %4, align 8, !tbaa !29
  %20 = getelementptr inbounds nuw %struct.ATRAC3PContext, ptr %19, i32 0, i32 14
  %21 = getelementptr inbounds [5 x i8], ptr %20, i64 0, i64 0
  call void @llvm.memset.p0.i64(ptr align 4 %21, i8 0, i64 5, i1 false)
  %22 = load ptr, ptr %5, align 8, !tbaa !4
  %23 = getelementptr inbounds nuw %struct.AVCodecContext, ptr %22, i32 0, i32 71
  call void @av_channel_layout_uninit(ptr noundef %23)
  %24 = load i32, ptr %6, align 4, !tbaa !33
  switch i32 %24, label %151 [
    i32 1, label %25
    i32 2, label %37
    i32 3, label %49
    i32 4, label %64
    i32 6, label %82
    i32 7, label %103
    i32 8, label %127
  ]

25:                                               ; preds = %2
  %26 = load ptr, ptr %5, align 8, !tbaa !4
  %27 = getelementptr inbounds nuw %struct.AVCodecContext, ptr %26, i32 0, i32 71
  %28 = getelementptr inbounds nuw %struct.AVChannelLayout, ptr %7, i32 0, i32 0
  store i32 1, ptr %28, align 8, !tbaa !87
  %29 = getelementptr inbounds nuw %struct.AVChannelLayout, ptr %7, i32 0, i32 1
  store i32 1, ptr %29, align 4, !tbaa !88
  %30 = getelementptr inbounds nuw %struct.AVChannelLayout, ptr %7, i32 0, i32 2
  store i64 4, ptr %30, align 8, !tbaa !78
  %31 = getelementptr inbounds nuw %struct.AVChannelLayout, ptr %7, i32 0, i32 3
  store ptr null, ptr %31, align 8, !tbaa !89
  call void @llvm.memcpy.p0.p0.i64(ptr align 8 %27, ptr align 8 %7, i64 24, i1 false), !tbaa.struct !90
  %32 = load ptr, ptr %4, align 8, !tbaa !29
  %33 = getelementptr inbounds nuw %struct.ATRAC3PContext, ptr %32, i32 0, i32 13
  store i32 1, ptr %33, align 16, !tbaa !34
  %34 = load ptr, ptr %4, align 8, !tbaa !29
  %35 = getelementptr inbounds nuw %struct.ATRAC3PContext, ptr %34, i32 0, i32 14
  %36 = getelementptr inbounds [5 x i8], ptr %35, i64 0, i64 0
  store i8 0, ptr %36, align 4, !tbaa !78
  br label %154

37:                                               ; preds = %2
  %38 = load ptr, ptr %5, align 8, !tbaa !4
  %39 = getelementptr inbounds nuw %struct.AVCodecContext, ptr %38, i32 0, i32 71
  %40 = getelementptr inbounds nuw %struct.AVChannelLayout, ptr %8, i32 0, i32 0
  store i32 1, ptr %40, align 8, !tbaa !87
  %41 = getelementptr inbounds nuw %struct.AVChannelLayout, ptr %8, i32 0, i32 1
  store i32 2, ptr %41, align 4, !tbaa !88
  %42 = getelementptr inbounds nuw %struct.AVChannelLayout, ptr %8, i32 0, i32 2
  store i64 3, ptr %42, align 8, !tbaa !78
  %43 = getelementptr inbounds nuw %struct.AVChannelLayout, ptr %8, i32 0, i32 3
  store ptr null, ptr %43, align 8, !tbaa !89
  call void @llvm.memcpy.p0.p0.i64(ptr align 8 %39, ptr align 8 %8, i64 24, i1 false), !tbaa.struct !90
  %44 = load ptr, ptr %4, align 8, !tbaa !29
  %45 = getelementptr inbounds nuw %struct.ATRAC3PContext, ptr %44, i32 0, i32 13
  store i32 1, ptr %45, align 16, !tbaa !34
  %46 = load ptr, ptr %4, align 8, !tbaa !29
  %47 = getelementptr inbounds nuw %struct.ATRAC3PContext, ptr %46, i32 0, i32 14
  %48 = getelementptr inbounds [5 x i8], ptr %47, i64 0, i64 0
  store i8 1, ptr %48, align 4, !tbaa !78
  br label %154

49:                                               ; preds = %2
  %50 = load ptr, ptr %5, align 8, !tbaa !4
  %51 = getelementptr inbounds nuw %struct.AVCodecContext, ptr %50, i32 0, i32 71
  %52 = getelementptr inbounds nuw %struct.AVChannelLayout, ptr %9, i32 0, i32 0
  store i32 1, ptr %52, align 8, !tbaa !87
  %53 = getelementptr inbounds nuw %struct.AVChannelLayout, ptr %9, i32 0, i32 1
  store i32 3, ptr %53, align 4, !tbaa !88
  %54 = getelementptr inbounds nuw %struct.AVChannelLayout, ptr %9, i32 0, i32 2
  store i64 7, ptr %54, align 8, !tbaa !78
  %55 = getelementptr inbounds nuw %struct.AVChannelLayout, ptr %9, i32 0, i32 3
  store ptr null, ptr %55, align 8, !tbaa !89
  call void @llvm.memcpy.p0.p0.i64(ptr align 8 %51, ptr align 8 %9, i64 24, i1 false), !tbaa.struct !90
  %56 = load ptr, ptr %4, align 8, !tbaa !29
  %57 = getelementptr inbounds nuw %struct.ATRAC3PContext, ptr %56, i32 0, i32 13
  store i32 2, ptr %57, align 16, !tbaa !34
  %58 = load ptr, ptr %4, align 8, !tbaa !29
  %59 = getelementptr inbounds nuw %struct.ATRAC3PContext, ptr %58, i32 0, i32 14
  %60 = getelementptr inbounds [5 x i8], ptr %59, i64 0, i64 0
  store i8 1, ptr %60, align 4, !tbaa !78
  %61 = load ptr, ptr %4, align 8, !tbaa !29
  %62 = getelementptr inbounds nuw %struct.ATRAC3PContext, ptr %61, i32 0, i32 14
  %63 = getelementptr inbounds [5 x i8], ptr %62, i64 0, i64 1
  store i8 0, ptr %63, align 1, !tbaa !78
  br label %154

64:                                               ; preds = %2
  %65 = load ptr, ptr %5, align 8, !tbaa !4
  %66 = getelementptr inbounds nuw %struct.AVCodecContext, ptr %65, i32 0, i32 71
  %67 = getelementptr inbounds nuw %struct.AVChannelLayout, ptr %10, i32 0, i32 0
  store i32 1, ptr %67, align 8, !tbaa !87
  %68 = getelementptr inbounds nuw %struct.AVChannelLayout, ptr %10, i32 0, i32 1
  store i32 4, ptr %68, align 4, !tbaa !88
  %69 = getelementptr inbounds nuw %struct.AVChannelLayout, ptr %10, i32 0, i32 2
  store i64 263, ptr %69, align 8, !tbaa !78
  %70 = getelementptr inbounds nuw %struct.AVChannelLayout, ptr %10, i32 0, i32 3
  store ptr null, ptr %70, align 8, !tbaa !89
  call void @llvm.memcpy.p0.p0.i64(ptr align 8 %66, ptr align 8 %10, i64 24, i1 false), !tbaa.struct !90
  %71 = load ptr, ptr %4, align 8, !tbaa !29
  %72 = getelementptr inbounds nuw %struct.ATRAC3PContext, ptr %71, i32 0, i32 13
  store i32 3, ptr %72, align 16, !tbaa !34
  %73 = load ptr, ptr %4, align 8, !tbaa !29
  %74 = getelementptr inbounds nuw %struct.ATRAC3PContext, ptr %73, i32 0, i32 14
  %75 = getelementptr inbounds [5 x i8], ptr %74, i64 0, i64 0
  store i8 1, ptr %75, align 4, !tbaa !78
  %76 = load ptr, ptr %4, align 8, !tbaa !29
  %77 = getelementptr inbounds nuw %struct.ATRAC3PContext, ptr %76, i32 0, i32 14
  %78 = getelementptr inbounds [5 x i8], ptr %77, i64 0, i64 1
  store i8 0, ptr %78, align 1, !tbaa !78
  %79 = load ptr, ptr %4, align 8, !tbaa !29
  %80 = getelementptr inbounds nuw %struct.ATRAC3PContext, ptr %79, i32 0, i32 14
  %81 = getelementptr inbounds [5 x i8], ptr %80, i64 0, i64 2
  store i8 0, ptr %81, align 2, !tbaa !78
  br label %154

82:                                               ; preds = %2
  %83 = load ptr, ptr %5, align 8, !tbaa !4
  %84 = getelementptr inbounds nuw %struct.AVCodecContext, ptr %83, i32 0, i32 71
  %85 = getelementptr inbounds nuw %struct.AVChannelLayout, ptr %11, i32 0, i32 0
  store i32 1, ptr %85, align 8, !tbaa !87
  %86 = getelementptr inbounds nuw %struct.AVChannelLayout, ptr %11, i32 0, i32 1
  store i32 6, ptr %86, align 4, !tbaa !88
  %87 = getelementptr inbounds nuw %struct.AVChannelLayout, ptr %11, i32 0, i32 2
  store i64 63, ptr %87, align 8, !tbaa !78
  %88 = getelementptr inbounds nuw %struct.AVChannelLayout, ptr %11, i32 0, i32 3
  store ptr null, ptr %88, align 8, !tbaa !89
  call void @llvm.memcpy.p0.p0.i64(ptr align 8 %84, ptr align 8 %11, i64 24, i1 false), !tbaa.struct !90
  %89 = load ptr, ptr %4, align 8, !tbaa !29
  %90 = getelementptr inbounds nuw %struct.ATRAC3PContext, ptr %89, i32 0, i32 13
  store i32 4, ptr %90, align 16, !tbaa !34
  %91 = load ptr, ptr %4, align 8, !tbaa !29
  %92 = getelementptr inbounds nuw %struct.ATRAC3PContext, ptr %91, i32 0, i32 14
  %93 = getelementptr inbounds [5 x i8], ptr %92, i64 0, i64 0
  store i8 1, ptr %93, align 4, !tbaa !78
  %94 = load ptr, ptr %4, align 8, !tbaa !29
  %95 = getelementptr inbounds nuw %struct.ATRAC3PContext, ptr %94, i32 0, i32 14
  %96 = getelementptr inbounds [5 x i8], ptr %95, i64 0, i64 1
  store i8 0, ptr %96, align 1, !tbaa !78
  %97 = load ptr, ptr %4, align 8, !tbaa !29
  %98 = getelementptr inbounds nuw %struct.ATRAC3PContext, ptr %97, i32 0, i32 14
  %99 = getelementptr inbounds [5 x i8], ptr %98, i64 0, i64 2
  store i8 1, ptr %99, align 2, !tbaa !78
  %100 = load ptr, ptr %4, align 8, !tbaa !29
  %101 = getelementptr inbounds nuw %struct.ATRAC3PContext, ptr %100, i32 0, i32 14
  %102 = getelementptr inbounds [5 x i8], ptr %101, i64 0, i64 3
  store i8 0, ptr %102, align 1, !tbaa !78
  br label %154

103:                                              ; preds = %2
  %104 = load ptr, ptr %5, align 8, !tbaa !4
  %105 = getelementptr inbounds nuw %struct.AVCodecContext, ptr %104, i32 0, i32 71
  %106 = getelementptr inbounds nuw %struct.AVChannelLayout, ptr %12, i32 0, i32 0
  store i32 1, ptr %106, align 8, !tbaa !87
  %107 = getelementptr inbounds nuw %struct.AVChannelLayout, ptr %12, i32 0, i32 1
  store i32 7, ptr %107, align 4, !tbaa !88
  %108 = getelementptr inbounds nuw %struct.AVChannelLayout, ptr %12, i32 0, i32 2
  store i64 319, ptr %108, align 8, !tbaa !78
  %109 = getelementptr inbounds nuw %struct.AVChannelLayout, ptr %12, i32 0, i32 3
  store ptr null, ptr %109, align 8, !tbaa !89
  call void @llvm.memcpy.p0.p0.i64(ptr align 8 %105, ptr align 8 %12, i64 24, i1 false), !tbaa.struct !90
  %110 = load ptr, ptr %4, align 8, !tbaa !29
  %111 = getelementptr inbounds nuw %struct.ATRAC3PContext, ptr %110, i32 0, i32 13
  store i32 5, ptr %111, align 16, !tbaa !34
  %112 = load ptr, ptr %4, align 8, !tbaa !29
  %113 = getelementptr inbounds nuw %struct.ATRAC3PContext, ptr %112, i32 0, i32 14
  %114 = getelementptr inbounds [5 x i8], ptr %113, i64 0, i64 0
  store i8 1, ptr %114, align 4, !tbaa !78
  %115 = load ptr, ptr %4, align 8, !tbaa !29
  %116 = getelementptr inbounds nuw %struct.ATRAC3PContext, ptr %115, i32 0, i32 14
  %117 = getelementptr inbounds [5 x i8], ptr %116, i64 0, i64 1
  store i8 0, ptr %117, align 1, !tbaa !78
  %118 = load ptr, ptr %4, align 8, !tbaa !29
  %119 = getelementptr inbounds nuw %struct.ATRAC3PContext, ptr %118, i32 0, i32 14
  %120 = getelementptr inbounds [5 x i8], ptr %119, i64 0, i64 2
  store i8 1, ptr %120, align 2, !tbaa !78
  %121 = load ptr, ptr %4, align 8, !tbaa !29
  %122 = getelementptr inbounds nuw %struct.ATRAC3PContext, ptr %121, i32 0, i32 14
  %123 = getelementptr inbounds [5 x i8], ptr %122, i64 0, i64 3
  store i8 0, ptr %123, align 1, !tbaa !78
  %124 = load ptr, ptr %4, align 8, !tbaa !29
  %125 = getelementptr inbounds nuw %struct.ATRAC3PContext, ptr %124, i32 0, i32 14
  %126 = getelementptr inbounds [5 x i8], ptr %125, i64 0, i64 4
  store i8 0, ptr %126, align 4, !tbaa !78
  br label %154

127:                                              ; preds = %2
  %128 = load ptr, ptr %5, align 8, !tbaa !4
  %129 = getelementptr inbounds nuw %struct.AVCodecContext, ptr %128, i32 0, i32 71
  %130 = getelementptr inbounds nuw %struct.AVChannelLayout, ptr %13, i32 0, i32 0
  store i32 1, ptr %130, align 8, !tbaa !87
  %131 = getelementptr inbounds nuw %struct.AVChannelLayout, ptr %13, i32 0, i32 1
  store i32 8, ptr %131, align 4, !tbaa !88
  %132 = getelementptr inbounds nuw %struct.AVChannelLayout, ptr %13, i32 0, i32 2
  store i64 1599, ptr %132, align 8, !tbaa !78
  %133 = getelementptr inbounds nuw %struct.AVChannelLayout, ptr %13, i32 0, i32 3
  store ptr null, ptr %133, align 8, !tbaa !89
  call void @llvm.memcpy.p0.p0.i64(ptr align 8 %129, ptr align 8 %13, i64 24, i1 false), !tbaa.struct !90
  %134 = load ptr, ptr %4, align 8, !tbaa !29
  %135 = getelementptr inbounds nuw %struct.ATRAC3PContext, ptr %134, i32 0, i32 13
  store i32 5, ptr %135, align 16, !tbaa !34
  %136 = load ptr, ptr %4, align 8, !tbaa !29
  %137 = getelementptr inbounds nuw %struct.ATRAC3PContext, ptr %136, i32 0, i32 14
  %138 = getelementptr inbounds [5 x i8], ptr %137, i64 0, i64 0
  store i8 1, ptr %138, align 4, !tbaa !78
  %139 = load ptr, ptr %4, align 8, !tbaa !29
  %140 = getelementptr inbounds nuw %struct.ATRAC3PContext, ptr %139, i32 0, i32 14
  %141 = getelementptr inbounds [5 x i8], ptr %140, i64 0, i64 1
  store i8 0, ptr %141, align 1, !tbaa !78
  %142 = load ptr, ptr %4, align 8, !tbaa !29
  %143 = getelementptr inbounds nuw %struct.ATRAC3PContext, ptr %142, i32 0, i32 14
  %144 = getelementptr inbounds [5 x i8], ptr %143, i64 0, i64 2
  store i8 1, ptr %144, align 2, !tbaa !78
  %145 = load ptr, ptr %4, align 8, !tbaa !29
  %146 = getelementptr inbounds nuw %struct.ATRAC3PContext, ptr %145, i32 0, i32 14
  %147 = getelementptr inbounds [5 x i8], ptr %146, i64 0, i64 3
  store i8 1, ptr %147, align 1, !tbaa !78
  %148 = load ptr, ptr %4, align 8, !tbaa !29
  %149 = getelementptr inbounds nuw %struct.ATRAC3PContext, ptr %148, i32 0, i32 14
  %150 = getelementptr inbounds [5 x i8], ptr %149, i64 0, i64 4
  store i8 0, ptr %150, align 4, !tbaa !78
  br label %154

151:                                              ; preds = %2
  %152 = load ptr, ptr %5, align 8, !tbaa !4
  %153 = load i32, ptr %6, align 4, !tbaa !33
  call void (ptr, i32, ptr, ...) @av_log(ptr noundef %152, i32 noundef 16, ptr noundef @.str.5, i32 noundef %153)
  store i32 -1094995529, ptr %3, align 4
  store i32 1, ptr %14, align 4
  br label %162

154:                                              ; preds = %127, %103, %82, %64, %49, %37, %25
  %155 = load i32, ptr %6, align 4, !tbaa !33
  %156 = sub nsw i32 %155, 1
  %157 = sext i32 %156 to i64
  %158 = getelementptr inbounds [8 x [8 x i8]], ptr @channel_map, i64 0, i64 %157
  %159 = getelementptr inbounds [8 x i8], ptr %158, i64 0, i64 0
  %160 = load ptr, ptr %4, align 8, !tbaa !29
  %161 = getelementptr inbounds nuw %struct.ATRAC3PContext, ptr %160, i32 0, i32 15
  store ptr %159, ptr %161, align 16, !tbaa !80
  store i32 0, ptr %3, align 4
  store i32 1, ptr %14, align 4
  br label %162

162:                                              ; preds = %154, %151
  call void @llvm.lifetime.end.p0(i64 4, ptr %6) #8
  %163 = load i32, ptr %3, align 4
  ret i32 %163
}