; Function Attrs: cold nounwind optsize uwtable
define internal fastcc range(i32 -1094995529, 1) i32 @set_channel_params(ptr noundef writeonly captures(none) initializes((65828, 65833)) %0, ptr noundef %1) unnamed_addr #0 {
  %3 = getelementptr inbounds nuw i8, ptr %1, i64 352
  %4 = getelementptr inbounds nuw i8, ptr %1, i64 356
  %5 = load i32, ptr %4, align 4, !tbaa !108
  %6 = getelementptr inbounds nuw i8, ptr %0, i64 65828
  tail call void @llvm.memset.p0.i64(ptr noundef nonnull align 4 dereferenceable(5) %6, i8 0, i64 5, i1 false)
  tail call void @av_channel_layout_uninit(ptr noundef nonnull %3) #7
  switch i32 %5, label %35 [
    i32 1, label %7
    i32 2, label %9
    i32 3, label %11
    i32 4, label %14
    i32 6, label %18
    i32 7, label %23
    i32 8, label %29
  ]

7:                                                ; preds = %2
  store i32 1, ptr %3, align 8, !tbaa !76
  store i32 1, ptr %4, align 4, !tbaa !76
  %.sroa.323.0..sroa_idx = getelementptr inbounds nuw i8, ptr %1, i64 360
  store i64 4, ptr %.sroa.323.0..sroa_idx, align 8, !tbaa !71
  %.sroa.424.0..sroa_idx = getelementptr inbounds nuw i8, ptr %1, i64 368
  store ptr null, ptr %.sroa.424.0..sroa_idx, align 8, !tbaa !109
  %8 = getelementptr inbounds nuw i8, ptr %0, i64 65824
  store i32 1, ptr %8, align 16, !tbaa !29
  store i8 0, ptr %6, align 4, !tbaa !71
  br label %36

9:                                                ; preds = %2
  store i32 1, ptr %3, align 8, !tbaa !76
  store i32 2, ptr %4, align 4, !tbaa !76
  %.sroa.319.0..sroa_idx = getelementptr inbounds nuw i8, ptr %1, i64 360
  store i64 3, ptr %.sroa.319.0..sroa_idx, align 8, !tbaa !71
  %.sroa.420.0..sroa_idx = getelementptr inbounds nuw i8, ptr %1, i64 368
  store ptr null, ptr %.sroa.420.0..sroa_idx, align 8, !tbaa !109
  %10 = getelementptr inbounds nuw i8, ptr %0, i64 65824
  store i32 1, ptr %10, align 16, !tbaa !29
  store i8 1, ptr %6, align 4, !tbaa !71
  br label %36

11:                                               ; preds = %2
  store i32 1, ptr %3, align 8, !tbaa !76
  store i32 3, ptr %4, align 4, !tbaa !76
  %.sroa.315.0..sroa_idx = getelementptr inbounds nuw i8, ptr %1, i64 360
  store i64 7, ptr %.sroa.315.0..sroa_idx, align 8, !tbaa !71
  %.sroa.416.0..sroa_idx = getelementptr inbounds nuw i8, ptr %1, i64 368
  store ptr null, ptr %.sroa.416.0..sroa_idx, align 8, !tbaa !109
  %12 = getelementptr inbounds nuw i8, ptr %0, i64 65824
  store i32 2, ptr %12, align 16, !tbaa !29
  store i8 1, ptr %6, align 4, !tbaa !71
  %13 = getelementptr inbounds nuw i8, ptr %0, i64 65829
  store i8 0, ptr %13, align 1, !tbaa !71
  br label %36

14:                                               ; preds = %2
  store i32 1, ptr %3, align 8, !tbaa !76
  store i32 4, ptr %4, align 4, !tbaa !76
  %.sroa.311.0..sroa_idx = getelementptr inbounds nuw i8, ptr %1, i64 360
  store i64 263, ptr %.sroa.311.0..sroa_idx, align 8, !tbaa !71
  %.sroa.412.0..sroa_idx = getelementptr inbounds nuw i8, ptr %1, i64 368
  store ptr null, ptr %.sroa.412.0..sroa_idx, align 8, !tbaa !109
  %15 = getelementptr inbounds nuw i8, ptr %0, i64 65824
  store i32 3, ptr %15, align 16, !tbaa !29
  store i8 1, ptr %6, align 4, !tbaa !71
  %16 = getelementptr inbounds nuw i8, ptr %0, i64 65829
  store i8 0, ptr %16, align 1, !tbaa !71
  %17 = getelementptr inbounds nuw i8, ptr %0, i64 65830
  store i8 0, ptr %17, align 2, !tbaa !71
  br label %36

18:                                               ; preds = %2
  store i32 1, ptr %3, align 8, !tbaa !76
  store i32 6, ptr %4, align 4, !tbaa !76
  %.sroa.37.0..sroa_idx = getelementptr inbounds nuw i8, ptr %1, i64 360
  store i64 63, ptr %.sroa.37.0..sroa_idx, align 8, !tbaa !71
  %.sroa.48.0..sroa_idx = getelementptr inbounds nuw i8, ptr %1, i64 368
  store ptr null, ptr %.sroa.48.0..sroa_idx, align 8, !tbaa !109
  %19 = getelementptr inbounds nuw i8, ptr %0, i64 65824
  store i32 4, ptr %19, align 16, !tbaa !29
  store i8 1, ptr %6, align 4, !tbaa !71
  %20 = getelementptr inbounds nuw i8, ptr %0, i64 65829
  store i8 0, ptr %20, align 1, !tbaa !71
  %21 = getelementptr inbounds nuw i8, ptr %0, i64 65830
  store i8 1, ptr %21, align 2, !tbaa !71
  %22 = getelementptr inbounds nuw i8, ptr %0, i64 65831
  store i8 0, ptr %22, align 1, !tbaa !71
  br label %36

23:                                               ; preds = %2
  store i32 1, ptr %3, align 8, !tbaa !76
  store i32 7, ptr %4, align 4, !tbaa !76
  %.sroa.33.0..sroa_idx = getelementptr inbounds nuw i8, ptr %1, i64 360
  store i64 319, ptr %.sroa.33.0..sroa_idx, align 8, !tbaa !71
  %.sroa.44.0..sroa_idx = getelementptr inbounds nuw i8, ptr %1, i64 368
  store ptr null, ptr %.sroa.44.0..sroa_idx, align 8, !tbaa !109
  %24 = getelementptr inbounds nuw i8, ptr %0, i64 65824
  store i32 5, ptr %24, align 16, !tbaa !29
  store i8 1, ptr %6, align 4, !tbaa !71
  %25 = getelementptr inbounds nuw i8, ptr %0, i64 65829
  store i8 0, ptr %25, align 1, !tbaa !71
  %26 = getelementptr inbounds nuw i8, ptr %0, i64 65830
  store i8 1, ptr %26, align 2, !tbaa !71
  %27 = getelementptr inbounds nuw i8, ptr %0, i64 65831
  store i8 0, ptr %27, align 1, !tbaa !71
  %28 = getelementptr inbounds nuw i8, ptr %0, i64 65832
  store i8 0, ptr %28, align 4, !tbaa !71
  br label %36

29:                                               ; preds = %2
  store i32 1, ptr %3, align 8, !tbaa !76
  store i32 8, ptr %4, align 4, !tbaa !76
  %.sroa.3.0..sroa_idx = getelementptr inbounds nuw i8, ptr %1, i64 360
  store i64 1599, ptr %.sroa.3.0..sroa_idx, align 8, !tbaa !71
  %.sroa.4.0..sroa_idx = getelementptr inbounds nuw i8, ptr %1, i64 368
  store ptr null, ptr %.sroa.4.0..sroa_idx, align 8, !tbaa !109
  %30 = getelementptr inbounds nuw i8, ptr %0, i64 65824
  store i32 5, ptr %30, align 16, !tbaa !29
  store i8 1, ptr %6, align 4, !tbaa !71
  %31 = getelementptr inbounds nuw i8, ptr %0, i64 65829
  store i8 0, ptr %31, align 1, !tbaa !71
  %32 = getelementptr inbounds nuw i8, ptr %0, i64 65830
  store i8 1, ptr %32, align 2, !tbaa !71
  %33 = getelementptr inbounds nuw i8, ptr %0, i64 65831
  store i8 1, ptr %33, align 1, !tbaa !71
  %34 = getelementptr inbounds nuw i8, ptr %0, i64 65832
  store i8 0, ptr %34, align 4, !tbaa !71
  br label %36

35:                                               ; preds = %2
  tail call void (ptr, i32, ptr, ...) @av_log(ptr noundef nonnull %1, i32 noundef 16, ptr noundef nonnull @.str.5, i32 noundef %5) #7
  br label %41

36:                                               ; preds = %29, %23, %18, %14, %11, %9, %7
  %37 = add nsw i32 %5, -1
  %38 = zext nneg i32 %37 to i64
  %39 = getelementptr inbounds nuw [8 x [8 x i8]], ptr @channel_map, i64 0, i64 %38
  %40 = getelementptr inbounds nuw i8, ptr %0, i64 65840
  store ptr %39, ptr %40, align 16, !tbaa !102
  br label %41

41:                                               ; preds = %36, %35
  %.0 = phi i32 [ -1094995529, %35 ], [ 0, %36 ]
  ret i32 %.0
}